; Function Attrs: mustprogress uwtable
define void @_ZN32pxrInternal_v0_24__pxrReserved__35UsdSkelImagingPackageSkinningShaderEv(ptr dead_on_unwind noalias writable writeonly sret(%"class.pxrInternal_v0_24__pxrReserved__::TfToken") align 8 captures(none) %0) local_unnamed_addr #0 personality ptr @__gxx_personality_v0 {
  %2 = load atomic i8, ptr @_ZGVZN32pxrInternal_v0_24__pxrReserved__35UsdSkelImagingPackageSkinningShaderEvE14skinningShader acquire, align 8
  %3 = icmp eq i8 %2, 0
  br i1 %3, label %4, label %9, !prof !4

4:                                                ; preds = %1
  %5 = tail call i32 @__cxa_guard_acquire(ptr nonnull @_ZGVZN32pxrInternal_v0_24__pxrReserved__35UsdSkelImagingPackageSkinningShaderEvE14skinningShader) #9
  %.not = icmp eq i32 %5, 0
  br i1 %.not, label %9, label %6

6:                                                ; preds = %4
  invoke fastcc void @_ZN32pxrInternal_v0_24__pxrReserved__L14_GetShaderPathEPKc()
          to label %7 unwind label %18

7:                                                ; preds = %6
  %8 = tail call i32 @__cxa_atexit(ptr nonnull @_ZN32pxrInternal_v0_24__pxrReserved__7TfTokenD2Ev, ptr nonnull @_ZZN32pxrInternal_v0_24__pxrReserved__35UsdSkelImagingPackageSkinningShaderEvE14skinningShader, ptr nonnull @__dso_handle) #9
  tail call void @__cxa_guard_release(ptr nonnull @_ZGVZN32pxrInternal_v0_24__pxrReserved__35UsdSkelImagingPackageSkinningShaderEvE14skinningShader) #9
  br label %9

9:                                                ; preds = %7, %4, %1
  %10 = load i64, ptr @_ZZN32pxrInternal_v0_24__pxrReserved__35UsdSkelImagingPackageSkinningShaderEvE14skinningShader, align 8
  store i64 %10, ptr %0, align 8
  %11 = and i64 %10, 7
  %.not.i.i = icmp eq i64 %11, 0
  br i1 %.not.i.i, label %_ZN32pxrInternal_v0_24__pxrReserved__7TfTokenC2ERKS0_.exit, label %12

12:                                               ; preds = %9
  %13 = and i64 %10, -8
  %14 = inttoptr i64 %13 to ptr
  %15 = atomicrmw add ptr %14, i32 2 monotonic, align 4
  %16 = and i32 %15, 1
  %.not1.i.i = icmp eq i32 %16, 0
  br i1 %.not1.i.i, label %17, label %_ZN32pxrInternal_v0_24__pxrReserved__7TfTokenC2ERKS0_.exit

17:                                               ; preds = %12
  store ptr %14, ptr %0, align 8
  br label %_ZN32pxrInternal_v0_24__pxrReserved__7TfTokenC2ERKS0_.exit

_ZN32pxrInternal_v0_24__pxrReserved__7TfTokenC2ERKS0_.exit: ; preds = %9, %12, %17
  ret void

18:                                               ; preds = %6
  %19 = landingpad { ptr, i32 }
          cleanup
  tail call void @__cxa_guard_abort(ptr nonnull @_ZGVZN32pxrInternal_v0_24__pxrReserved__35UsdSkelImagingPackageSkinningShaderEvE14skinningShader) #9
  resume { ptr, i32 } %19
}